; Function Attrs: mustprogress uwtable
define hidden void @_ZNK19bv_bound_chk_tactic18collect_statisticsER10statistics(ptr noundef nonnull readonly align 8 captures(none) dereferenceable(44) %0, ptr noundef nonnull align 8 dereferenceable(16) %1) unnamed_addr #3 align 2 {
  %3 = getelementptr inbounds nuw i8, ptr %0, i64 16
  %4 = load ptr, ptr %3, align 8, !tbaa !15
  %5 = getelementptr inbounds nuw i8, ptr %4, i64 640
  %6 = load ptr, ptr %5, align 8, !tbaa !94
  %7 = load i32, ptr %6, align 4, !tbaa !11
  tail call void @_ZN10statistics6updateEPKcj(ptr noundef nonnull align 8 dereferenceable(16) %1, ptr noundef nonnull @.str.15, i32 noundef %7)
  %8 = load ptr, ptr %5, align 8, !tbaa !94
  %9 = getelementptr inbounds nuw i8, ptr %8, i64 4
  %10 = load i32, ptr %9, align 4, !tbaa !13
  tail call void @_ZN10statistics6updateEPKcj(ptr noundef nonnull align 8 dereferenceable(16) %1, ptr noundef nonnull @.str.16, i32 noundef %10)
  %11 = load ptr, ptr %5, align 8, !tbaa !94
  %12 = getelementptr inbounds nuw i8, ptr %11, i64 8
  %13 = load i32, ptr %12, align 4, !tbaa !14
  tail call void @_ZN10statistics6updateEPKcj(ptr noundef nonnull align 8 dereferenceable(16) %1, ptr noundef nonnull @.str.17, i32 noundef %13)
  ret void
}